; Function Attrs: mustprogress uwtable
define void @_ZN13IlmThread_3_29TaskGroupC2Ev(ptr nocapture noundef nonnull writeonly align 8 dereferenceable(8) %this) unnamed_addr #0 align 2 personality ptr @__gxx_personality_v0 {
entry:
  %call = tail call noalias noundef nonnull dereferenceable(48) ptr @_Znwm(i64 noundef 48) #25
  store i32 0, ptr %call, align 4
  %inFlight.i = getelementptr inbounds i8, ptr %call, i64 4
  store i32 0, ptr %inFlight.i, align 4
  %isEmpty.i = getelementptr inbounds i8, ptr %call, i64 8
  invoke void @_ZN13IlmThread_3_29SemaphoreC1Ej(ptr noundef nonnull align 8 dereferenceable(40) %isEmpty.i, i32 noundef 1)
          to label %invoke.cont unwind label %lpad

invoke.cont:                                      ; preds = %entry
  store ptr %call, ptr %this, align 8
  ret void

lpad:                                             ; preds = %entry
  %0 = landingpad { ptr, i32 }
          cleanup
  tail call void @_ZdlPv(ptr noundef nonnull %call) #26
  resume { ptr, i32 } %0
}